; Function Attrs: nofree norecurse nosync nounwind memory(readwrite, inaccessiblemem: none) uwtable
define range(i32 0, 2) i32 @ossl_ml_kem_encode_public_key(ptr noundef writeonly captures(none) %0, i64 noundef %1, ptr noundef readonly captures(none) %2) local_unnamed_addr #4 {
  %4 = getelementptr inbounds nuw i8, ptr %2, i64 64
  %5 = load ptr, ptr %4, align 8, !tbaa !3
  %.not = icmp eq ptr %5, null
  br i1 %.not, label %44, label %6

6:                                                ; preds = %3
  %7 = load ptr, ptr %2, align 8, !tbaa !14
  %8 = getelementptr inbounds nuw i8, ptr %7, i64 24
  %9 = load i64, ptr %8, align 8, !tbaa !35
  %.not5 = icmp eq i64 %1, %9
  br i1 %.not5, label %10, label %44

10:                                               ; preds = %6
  %11 = getelementptr inbounds nuw i8, ptr %2, i64 48
  %12 = load ptr, ptr %11, align 8, !tbaa !31
  %13 = getelementptr inbounds nuw i8, ptr %7, i64 72
  %14 = load i32, ptr %13, align 8, !tbaa !29
  %15 = icmp sgt i32 %14, 0
  br i1 %15, label %.lr.ph.i.i, label %encode_pubkey.exit

.lr.ph.i.i:                                       ; preds = %10, %scalar_encode.exit.i.i
  %.010.i.i = phi ptr [ %39, %scalar_encode.exit.i.i ], [ %0, %10 ]
  %.069.i.i = phi i32 [ %37, %scalar_encode.exit.i.i ], [ %14, %10 ]
  %.078.i.i = phi ptr [ %38, %scalar_encode.exit.i.i ], [ %5, %10 ]
  br label %16

16:                                               ; preds = %35, %.lr.ph.i.i
  %.029.idx.i.i.i = phi i64 [ 0, %.lr.ph.i.i ], [ %.029.add.i.i.i, %35 ]
  %.027.i.i.i = phi i64 [ 0, %.lr.ph.i.i ], [ %.128.i.i.i, %35 ]
  %.025.i.i.i = phi ptr [ %.010.i.i, %.lr.ph.i.i ], [ %.126.i.i.i, %35 ]
  %.0.i.i.i = phi i32 [ 0, %.lr.ph.i.i ], [ %.1.i.i.i, %35 ]
  %.029.ptr.i.i.i = getelementptr inbounds nuw i8, ptr %.078.i.i, i64 %.029.idx.i.i.i
  %.029.add.i.i.i = add nuw nsw i64 %.029.idx.i.i.i, 2
  %17 = load i16, ptr %.029.ptr.i.i.i, align 2, !tbaa !36
  %18 = zext i16 %17 to i64
  %19 = add nsw i32 %.0.i.i.i, 12
  %20 = icmp slt i32 %.0.i.i.i, 52
  br i1 %20, label %21, label %25

21:                                               ; preds = %16
  %22 = zext nneg i32 %.0.i.i.i to i64
  %23 = shl i64 %18, %22
  %24 = or i64 %23, %.027.i.i.i
  br label %35

25:                                               ; preds = %16
  %.not.i.i.i = icmp eq i32 %19, 64
  %26 = zext nneg i32 %.0.i.i.i to i64
  %27 = shl i64 %18, %26
  %28 = or i64 %27, %.027.i.i.i
  store i64 %28, ptr %.025.i.i.i, align 1
  %29 = getelementptr inbounds nuw i8, ptr %.025.i.i.i, i64 8
  br i1 %.not.i.i.i, label %35, label %30

30:                                               ; preds = %25
  %31 = sub nsw i32 64, %.0.i.i.i
  %32 = zext nneg i32 %31 to i64
  %33 = lshr i64 %18, %32
  %34 = add nsw i32 %.0.i.i.i, -52
  br label %35

35:                                               ; preds = %30, %25, %21
  %.128.i.i.i = phi i64 [ %24, %21 ], [ %33, %30 ], [ 0, %25 ]
  %.126.i.i.i = phi ptr [ %.025.i.i.i, %21 ], [ %29, %30 ], [ %29, %25 ]
  %.1.i.i.i = phi i32 [ %19, %21 ], [ %34, %30 ], [ 0, %25 ]
  %36 = icmp samesign ult i64 %.029.idx.i.i.i, 510
  br i1 %36, label %16, label %scalar_encode.exit.i.i, !llvm.loop !38

scalar_encode.exit.i.i:                           ; preds = %35
  %37 = add nsw i32 %.069.i.i, -1
  %38 = getelementptr inbounds nuw i8, ptr %.078.i.i, i64 512
  %39 = getelementptr inbounds nuw i8, ptr %.010.i.i, i64 384
  %40 = icmp sgt i32 %.069.i.i, 1
  br i1 %40, label %.lr.ph.i.i, label %encode_pubkey.exit, !llvm.loop !40

encode_pubkey.exit:                               ; preds = %scalar_encode.exit.i.i, %10
  %41 = getelementptr inbounds nuw i8, ptr %7, i64 48
  %42 = load i64, ptr %41, align 8, !tbaa !15
  %43 = getelementptr inbounds nuw i8, ptr %0, i64 %42
  tail call void @llvm.memcpy.p0.p0.i64(ptr noundef nonnull align 1 dereferenceable(32) %43, ptr noundef nonnull align 1 dereferenceable(32) %12, i64 32, i1 false)
  br label %44

44:                                               ; preds = %3, %6, %encode_pubkey.exit
  %.0 = phi i32 [ 1, %encode_pubkey.exit ], [ 0, %6 ], [ 0, %3 ]
  ret i32 %.0
}